target datalayout = "e-m:e-p270:32:32-p271:32:32-p272:64:64-i64:64-i128:128-f80:128-n8:16:32:64-S128"
target triple = "x86_64-pc-linux-gnu"

%struct.PatternInfoArray = type { ptr, i64 }
%struct.AmcheckOptions = type { i8, i8, i8, i8, i8, i8, i32, i8, ptr, %struct.PatternInfoArray, %struct.PatternInfoArray, i8, i8, i8, i8, i8, i8, i8, i64, i64, ptr, i8, i8, i8, i8, i8 }
%struct.ParallelSlot = type { ptr, i8, ptr, ptr }

@.str.83 = private unnamed_addr constant [4 x i8] c"%s\0A\00", align 1
@.str.84 = private unnamed_addr constant [43 x i8] c"error sending command to database \22%s\22: %s\00", align 1
@.str.85 = private unnamed_addr constant [16 x i8] c"Command was: %s\00", align 1

; Function Attrs: nounwind uwtable
define internal void @run_command(ptr noundef %0, ptr noundef %1) #0 {
  %3 = alloca ptr, align 8
  %4 = alloca ptr, align 8
  store ptr %0, ptr %3, align 8
  store ptr %1, ptr %4, align 8
  %5 = load i8, ptr getelementptr inbounds nuw (%struct.AmcheckOptions, ptr @opts, i32 0, i32 2), align 2, !range !6, !noundef !7
  %6 = trunc i8 %5 to i1
  br i1 %6, label %7, label %10

7:                                                ; preds = %2
  %8 = load ptr, ptr %4, align 8
  %9 = call i32 (ptr, ...) @pg_printf(ptr noundef @.str.83, ptr noundef %8)
  br label %10

10:                                               ; preds = %7, %2
  %11 = load ptr, ptr %3, align 8
  %12 = getelementptr inbounds nuw %struct.ParallelSlot, ptr %11, i32 0, i32 0
  %13 = load ptr, ptr %12, align 8
  %14 = load ptr, ptr %4, align 8
  %15 = call i32 @PQsendQuery(ptr noundef %13, ptr noundef %14)
  %16 = icmp eq i32 %15, 0
  br i1 %16, label %17, label %27

17:                                               ; preds = %10
  %18 = load ptr, ptr %3, align 8
  %19 = getelementptr inbounds nuw %struct.ParallelSlot, ptr %18, i32 0, i32 0
  %20 = load ptr, ptr %19, align 8
  %21 = call ptr @PQdb(ptr noundef %20)
  %22 = load ptr, ptr %3, align 8
  %23 = getelementptr inbounds nuw %struct.ParallelSlot, ptr %22, i32 0, i32 0
  %24 = load ptr, ptr %23, align 8
  %25 = call ptr @PQerrorMessage(ptr noundef %24)
  call void (i32, i32, ptr, ...) @pg_log_generic(i32 noundef 4, i32 noundef 0, ptr noundef @.str.84, ptr noundef %21, ptr noundef %25)
  %26 = load ptr, ptr %4, align 8
  call void (i32, i32, ptr, ...) @pg_log_generic(i32 noundef 4, i32 noundef 1, ptr noundef @.str.85, ptr noundef %26)
  call void @exit(i32 noundef 1) #11
  unreachable

27:                                               ; preds = %10
  ret void
}