; Function Attrs: nounwind uwtable
define internal fastcc void @run_command(ptr noundef nonnull readonly captures(none) %0, ptr noundef %1) unnamed_addr #0 {
  %3 = load i8, ptr getelementptr inbounds nuw (i8, ptr @opts, i64 2), align 2, !range !6, !noundef !7
  %4 = trunc nuw i8 %3 to i1
  br i1 %4, label %5, label %7

5:                                                ; preds = %2
  %6 = tail call i32 (ptr, ...) @pg_printf(ptr noundef nonnull @.str.83, ptr noundef %1) #11
  br label %7

7:                                                ; preds = %5, %2
  %8 = load ptr, ptr %0, align 8
  %9 = tail call i32 @PQsendQuery(ptr noundef %8, ptr noundef %1) #11
  %10 = icmp eq i32 %9, 0
  br i1 %10, label %11, label %16

11:                                               ; preds = %7
  %12 = load ptr, ptr %0, align 8
  %13 = tail call ptr @PQdb(ptr noundef %12) #11
  %14 = load ptr, ptr %0, align 8
  %15 = tail call ptr @PQerrorMessage(ptr noundef %14) #11
  tail call void (i32, i32, ptr, ...) @pg_log_generic(i32 noundef 4, i32 noundef 0, ptr noundef nonnull @.str.84, ptr noundef %13, ptr noundef %15) #11
  tail call void (i32, i32, ptr, ...) @pg_log_generic(i32 noundef 4, i32 noundef 1, ptr noundef nonnull @.str.85, ptr noundef %1) #11
  tail call void @exit(i32 noundef 1) #12
  unreachable

16:                                               ; preds = %7
  ret void
}